(lp1
((V/home/herve/datasets/SceneFlow/VeryFast/frames_cleanpass/left/0090.png
V/home/herve/datasets/SceneFlow/VeryFast/frames_cleanpass/right/0090.png
tp2
(V/home/herve/datasets/SceneFlow/VeryFast/disparity/left/0090.pfm
V/home/herve/datasets/SceneFlow/VeryFast/disparity/right/0090.pfm
tp3
tp4
a((V/home/herve/datasets/SceneFlow/VeryFast/frames_cleanpass/left/0060.png
V/home/herve/datasets/SceneFlow/VeryFast/frames_cleanpass/right/0060.png
tp5
(V/home/herve/datasets/SceneFlow/VeryFast/disparity/left/0060.pfm
V/home/herve/datasets/SceneFlow/VeryFast/disparity/right/0060.pfm
tp6
tp7
a((V/home/herve/datasets/SceneFlow/VeryFast/frames_cleanpass/left/0510.png
V/home/herve/datasets/SceneFlow/VeryFast/frames_cleanpass/right/0510.png
tp8
(V/home/herve/datasets/SceneFlow/VeryFast/disparity/left/0510.pfm
V/home/herve/datasets/SceneFlow/VeryFast/disparity/right/0510.pfm
tp9
tp10
a((V/home/herve/datasets/SceneFlow/VeryFast/frames_cleanpass/left/0150.png
V/home/herve/datasets/SceneFlow/VeryFast/frames_cleanpass/right/0150.png
tp11
(V/home/herve/datasets/SceneFlow/VeryFast/disparity/left/0150.pfm
V/home/herve/datasets/SceneFlow/VeryFast/disparity/right/0150.pfm
tp12
tp13
a((V/home/herve/datasets/SceneFlow/VeryFast/frames_cleanpass/left/0030.png
V/home/herve/datasets/SceneFlow/VeryFast/frames_cleanpass/right/0030.png
tp14
(V/home/herve/datasets/SceneFlow/VeryFast/disparity/left/0030.pfm
V/home/herve/datasets/SceneFlow/VeryFast/disparity/right/0030.pfm
tp15
tp16
a((V/home/herve/datasets/SceneFlow/VeryFast/frames_cleanpass/left/0360.png
V/home/herve/datasets/SceneFlow/VeryFast/frames_cleanpass/right/0360.png
tp17
(V/home/herve/datasets/SceneFlow/VeryFast/disparity/left/0360.pfm
V/home/herve/datasets/SceneFlow/VeryFast/disparity/right/0360.pfm
tp18
tp19
a((V/home/herve/datasets/SceneFlow/VeryFast/frames_cleanpass/left/0210.png
V/home/herve/datasets/SceneFlow/VeryFast/frames_cleanpass/right/0210.png
tp20
(V/home/herve/datasets/SceneFlow/VeryFast/disparity/left/0210.pfm
V/home/herve/datasets/SceneFlow/VeryFast/disparity/right/0210.pfm
tp21
tp22
a((V/home/herve/datasets/SceneFlow/VeryFast/frames_cleanpass/left/0330.png
V/home/herve/datasets/SceneFlow/VeryFast/frames_cleanpass/right/0330.png
tp23
(V/home/herve/datasets/SceneFlow/VeryFast/disparity/left/0330.pfm
V/home/herve/datasets/SceneFlow/VeryFast/disparity/right/0330.pfm
tp24
tp25
a((V/home/herve/datasets/SceneFlow/VeryFast/frames_cleanpass/left/0420.png
V/home/herve/datasets/SceneFlow/VeryFast/frames_cleanpass/right/0420.png
tp26
(V/home/herve/datasets/SceneFlow/VeryFast/disparity/left/0420.pfm
V/home/herve/datasets/SceneFlow/VeryFast/disparity/right/0420.pfm
tp27
tp28
a((V/home/herve/datasets/SceneFlow/VeryFast/frames_cleanpass/left/0450.png
V/home/herve/datasets/SceneFlow/VeryFast/frames_cleanpass/right/0450.png
tp29
(V/home/herve/datasets/SceneFlow/VeryFast/disparity/left/0450.pfm
V/home/herve/datasets/SceneFlow/VeryFast/disparity/right/0450.pfm
tp30
tp31
a((V/home/herve/datasets/SceneFlow/VeryFast/frames_cleanpass/left/0180.png
V/home/herve/datasets/SceneFlow/VeryFast/frames_cleanpass/right/0180.png
tp32
(V/home/herve/datasets/SceneFlow/VeryFast/disparity/left/0180.pfm
V/home/herve/datasets/SceneFlow/VeryFast/disparity/right/0180.pfm
tp33
tp34
a((V/home/herve/datasets/SceneFlow/VeryFast/frames_cleanpass/left/0540.png
V/home/herve/datasets/SceneFlow/VeryFast/frames_cleanpass/right/0540.png
tp35
(V/home/herve/datasets/SceneFlow/VeryFast/disparity/left/0540.pfm
V/home/herve/datasets/SceneFlow/VeryFast/disparity/right/0540.pfm
tp36
tp37
a((V/home/herve/datasets/SceneFlow/VeryFast/frames_cleanpass/left/0120.png
V/home/herve/datasets/SceneFlow/VeryFast/frames_cleanpass/right/0120.png
tp38
(V/home/herve/datasets/SceneFlow/VeryFast/disparity/left/0120.pfm
V/home/herve/datasets/SceneFlow/VeryFast/disparity/right/0120.pfm
tp39
tp40
a((V/home/herve/datasets/SceneFlow/VeryFast/frames_cleanpass/left/0270.png
V/home/herve/datasets/SceneFlow/VeryFast/frames_cleanpass/right/0270.png
tp41
(V/home/herve/datasets/SceneFlow/VeryFast/disparity/left/0270.pfm
V/home/herve/datasets/SceneFlow/VeryFast/disparity/right/0270.pfm
tp42
tp43
a.