(lp1
((V/home/herve/datasets/Kitti/data_scene_flow/training/image_2/000103_10.png
V/home/herve/datasets/Kitti/data_scene_flow/training/image_3/000103_10.png
tp2
(V/home/herve/datasets/Kitti/data_scene_flow/training/disp_occ_0/000103_10.png
V/home/herve/datasets/Kitti/data_scene_flow/training/disp_occ_1/000103_10.png
tp3
tp4
a((V/home/herve/datasets/Kitti/data_scene_flow/training/image_2/000143_10.png
V/home/herve/datasets/Kitti/data_scene_flow/training/image_3/000143_10.png
tp5
(V/home/herve/datasets/Kitti/data_scene_flow/training/disp_occ_0/000143_10.png
V/home/herve/datasets/Kitti/data_scene_flow/training/disp_occ_1/000143_10.png
tp6
tp7
a((V/home/herve/datasets/Kitti/data_scene_flow/training/image_2/000055_10.png
V/home/herve/datasets/Kitti/data_scene_flow/training/image_3/000055_10.png
tp8
(V/home/herve/datasets/Kitti/data_scene_flow/training/disp_occ_0/000055_10.png
V/home/herve/datasets/Kitti/data_scene_flow/training/disp_occ_1/000055_10.png
tp9
tp10
a((V/home/herve/datasets/Kitti/data_scene_flow/training/image_2/000123_10.png
V/home/herve/datasets/Kitti/data_scene_flow/training/image_3/000123_10.png
tp11
(V/home/herve/datasets/Kitti/data_scene_flow/training/disp_occ_0/000123_10.png
V/home/herve/datasets/Kitti/data_scene_flow/training/disp_occ_1/000123_10.png
tp12
tp13
a((V/home/herve/datasets/Kitti/data_scene_flow/training/image_2/000089_10.png
V/home/herve/datasets/Kitti/data_scene_flow/training/image_3/000089_10.png
tp14
(V/home/herve/datasets/Kitti/data_scene_flow/training/disp_occ_0/000089_10.png
V/home/herve/datasets/Kitti/data_scene_flow/training/disp_occ_1/000089_10.png
tp15
tp16
a((V/home/herve/datasets/Kitti/data_scene_flow/training/image_2/000125_10.png
V/home/herve/datasets/Kitti/data_scene_flow/training/image_3/000125_10.png
tp17
(V/home/herve/datasets/Kitti/data_scene_flow/training/disp_occ_0/000125_10.png
V/home/herve/datasets/Kitti/data_scene_flow/training/disp_occ_1/000125_10.png
tp18
tp19
a((V/home/herve/datasets/Kitti/data_scene_flow/training/image_2/000199_10.png
V/home/herve/datasets/Kitti/data_scene_flow/training/image_3/000199_10.png
tp20
(V/home/herve/datasets/Kitti/data_scene_flow/training/disp_occ_0/000199_10.png
V/home/herve/datasets/Kitti/data_scene_flow/training/disp_occ_1/000199_10.png
tp21
tp22
a((V/home/herve/datasets/Kitti/data_scene_flow/training/image_2/000088_10.png
V/home/herve/datasets/Kitti/data_scene_flow/training/image_3/000088_10.png
tp23
(V/home/herve/datasets/Kitti/data_scene_flow/training/disp_occ_0/000088_10.png
V/home/herve/datasets/Kitti/data_scene_flow/training/disp_occ_1/000088_10.png
tp24
tp25
a((V/home/herve/datasets/Kitti/data_scene_flow/training/image_2/000004_10.png
V/home/herve/datasets/Kitti/data_scene_flow/training/image_3/000004_10.png
tp26
(V/home/herve/datasets/Kitti/data_scene_flow/training/disp_occ_0/000004_10.png
V/home/herve/datasets/Kitti/data_scene_flow/training/disp_occ_1/000004_10.png
tp27
tp28
a((V/home/herve/datasets/Kitti/data_scene_flow/training/image_2/000010_10.png
V/home/herve/datasets/Kitti/data_scene_flow/training/image_3/000010_10.png
tp29
(V/home/herve/datasets/Kitti/data_scene_flow/training/disp_occ_0/000010_10.png
V/home/herve/datasets/Kitti/data_scene_flow/training/disp_occ_1/000010_10.png
tp30
tp31
a((V/home/herve/datasets/Kitti/data_scene_flow/training/image_2/000127_10.png
V/home/herve/datasets/Kitti/data_scene_flow/training/image_3/000127_10.png
tp32
(V/home/herve/datasets/Kitti/data_scene_flow/training/disp_occ_0/000127_10.png
V/home/herve/datasets/Kitti/data_scene_flow/training/disp_occ_1/000127_10.png
tp33
tp34
a((V/home/herve/datasets/Kitti/data_scene_flow/training/image_2/000186_10.png
V/home/herve/datasets/Kitti/data_scene_flow/training/image_3/000186_10.png
tp35
(V/home/herve/datasets/Kitti/data_scene_flow/training/disp_occ_0/000186_10.png
V/home/herve/datasets/Kitti/data_scene_flow/training/disp_occ_1/000186_10.png
tp36
tp37
a((V/home/herve/datasets/Kitti/data_scene_flow/training/image_2/000040_10.png
V/home/herve/datasets/Kitti/data_scene_flow/training/image_3/000040_10.png
tp38
(V/home/herve/datasets/Kitti/data_scene_flow/training/disp_occ_0/000040_10.png
V/home/herve/datasets/Kitti/data_scene_flow/training/disp_occ_1/000040_10.png
tp39
tp40
a((V/home/herve/datasets/Kitti/data_scene_flow/training/image_2/000003_10.png
V/home/herve/datasets/Kitti/data_scene_flow/training/image_3/000003_10.png
tp41
(V/home/herve/datasets/Kitti/data_scene_flow/training/disp_occ_0/000003_10.png
V/home/herve/datasets/Kitti/data_scene_flow/training/disp_occ_1/000003_10.png
tp42
tp43
a((V/home/herve/datasets/Kitti/data_scene_flow/training/image_2/000138_10.png
V/home/herve/datasets/Kitti/data_scene_flow/training/image_3/000138_10.png
tp44
(V/home/herve/datasets/Kitti/data_scene_flow/training/disp_occ_0/000138_10.png
V/home/herve/datasets/Kitti/data_scene_flow/training/disp_occ_1/000138_10.png
tp45
tp46
a((V/home/herve/datasets/Kitti/data_scene_flow/training/image_2/000117_10.png
V/home/herve/datasets/Kitti/data_scene_flow/training/image_3/000117_10.png
tp47
(V/home/herve/datasets/Kitti/data_scene_flow/training/disp_occ_0/000117_10.png
V/home/herve/datasets/Kitti/data_scene_flow/training/disp_occ_1/000117_10.png
tp48
tp49
a((V/home/herve/datasets/Kitti/data_scene_flow/training/image_2/000092_10.png
V/home/herve/datasets/Kitti/data_scene_flow/training/image_3/000092_10.png
tp50
(V/home/herve/datasets/Kitti/data_scene_flow/training/disp_occ_0/000092_10.png
V/home/herve/datasets/Kitti/data_scene_flow/training/disp_occ_1/000092_10.png
tp51
tp52
a((V/home/herve/datasets/Kitti/data_scene_flow/training/image_2/000057_10.png
V/home/herve/datasets/Kitti/data_scene_flow/training/image_3/000057_10.png
tp53
(V/home/herve/datasets/Kitti/data_scene_flow/training/disp_occ_0/000057_10.png
V/home/herve/datasets/Kitti/data_scene_flow/training/disp_occ_1/000057_10.png
tp54
tp55
a((V/home/herve/datasets/Kitti/data_scene_flow/training/image_2/000041_10.png
V/home/herve/datasets/Kitti/data_scene_flow/training/image_3/000041_10.png
tp56
(V/home/herve/datasets/Kitti/data_scene_flow/training/disp_occ_0/000041_10.png
V/home/herve/datasets/Kitti/data_scene_flow/training/disp_occ_1/000041_10.png
tp57
tp58
a((V/home/herve/datasets/Kitti/data_scene_flow/training/image_2/000182_10.png
V/home/herve/datasets/Kitti/data_scene_flow/training/image_3/000182_10.png
tp59
(V/home/herve/datasets/Kitti/data_scene_flow/training/disp_occ_0/000182_10.png
V/home/herve/datasets/Kitti/data_scene_flow/training/disp_occ_1/000182_10.png
tp60
tp61
a((V/home/herve/datasets/Kitti/data_scene_flow/training/image_2/000048_10.png
V/home/herve/datasets/Kitti/data_scene_flow/training/image_3/000048_10.png
tp62
(V/home/herve/datasets/Kitti/data_scene_flow/training/disp_occ_0/000048_10.png
V/home/herve/datasets/Kitti/data_scene_flow/training/disp_occ_1/000048_10.png
tp63
tp64
a((V/home/herve/datasets/Kitti/data_scene_flow/training/image_2/000000_10.png
V/home/herve/datasets/Kitti/data_scene_flow/training/image_3/000000_10.png
tp65
(V/home/herve/datasets/Kitti/data_scene_flow/training/disp_occ_0/000000_10.png
V/home/herve/datasets/Kitti/data_scene_flow/training/disp_occ_1/000000_10.png
tp66
tp67
a((V/home/herve/datasets/Kitti/data_scene_flow/training/image_2/000095_10.png
V/home/herve/datasets/Kitti/data_scene_flow/training/image_3/000095_10.png
tp68
(V/home/herve/datasets/Kitti/data_scene_flow/training/disp_occ_0/000095_10.png
V/home/herve/datasets/Kitti/data_scene_flow/training/disp_occ_1/000095_10.png
tp69
tp70
a((V/home/herve/datasets/Kitti/data_scene_flow/training/image_2/000158_10.png
V/home/herve/datasets/Kitti/data_scene_flow/training/image_3/000158_10.png
tp71
(V/home/herve/datasets/Kitti/data_scene_flow/training/disp_occ_0/000158_10.png
V/home/herve/datasets/Kitti/data_scene_flow/training/disp_occ_1/000158_10.png
tp72
tp73
a((V/home/herve/datasets/Kitti/data_scene_flow/training/image_2/000115_10.png
V/home/herve/datasets/Kitti/data_scene_flow/training/image_3/000115_10.png
tp74
(V/home/herve/datasets/Kitti/data_scene_flow/training/disp_occ_0/000115_10.png
V/home/herve/datasets/Kitti/data_scene_flow/training/disp_occ_1/000115_10.png
tp75
tp76
a((V/home/herve/datasets/Kitti/data_scene_flow/training/image_2/000164_10.png
V/home/herve/datasets/Kitti/data_scene_flow/training/image_3/000164_10.png
tp77
(V/home/herve/datasets/Kitti/data_scene_flow/training/disp_occ_0/000164_10.png
V/home/herve/datasets/Kitti/data_scene_flow/training/disp_occ_1/000164_10.png
tp78
tp79
a((V/home/herve/datasets/Kitti/data_scene_flow/training/image_2/000087_10.png
V/home/herve/datasets/Kitti/data_scene_flow/training/image_3/000087_10.png
tp80
(V/home/herve/datasets/Kitti/data_scene_flow/training/disp_occ_0/000087_10.png
V/home/herve/datasets/Kitti/data_scene_flow/training/disp_occ_1/000087_10.png
tp81
tp82
a((V/home/herve/datasets/Kitti/data_scene_flow/training/image_2/000178_10.png
V/home/herve/datasets/Kitti/data_scene_flow/training/image_3/000178_10.png
tp83
(V/home/herve/datasets/Kitti/data_scene_flow/training/disp_occ_0/000178_10.png
V/home/herve/datasets/Kitti/data_scene_flow/training/disp_occ_1/000178_10.png
tp84
tp85
a((V/home/herve/datasets/Kitti/data_scene_flow/training/image_2/000120_10.png
V/home/herve/datasets/Kitti/data_scene_flow/training/image_3/000120_10.png
tp86
(V/home/herve/datasets/Kitti/data_scene_flow/training/disp_occ_0/000120_10.png
V/home/herve/datasets/Kitti/data_scene_flow/training/disp_occ_1/000120_10.png
tp87
tp88
a((V/home/herve/datasets/Kitti/data_scene_flow/training/image_2/000155_10.png
V/home/herve/datasets/Kitti/data_scene_flow/training/image_3/000155_10.png
tp89
(V/home/herve/datasets/Kitti/data_scene_flow/training/disp_occ_0/000155_10.png
V/home/herve/datasets/Kitti/data_scene_flow/training/disp_occ_1/000155_10.png
tp90
tp91
a((V/home/herve/datasets/Kitti/data_scene_flow/training/image_2/000065_10.png
V/home/herve/datasets/Kitti/data_scene_flow/training/image_3/000065_10.png
tp92
(V/home/herve/datasets/Kitti/data_scene_flow/training/disp_occ_0/000065_10.png
V/home/herve/datasets/Kitti/data_scene_flow/training/disp_occ_1/000065_10.png
tp93
tp94
a((V/home/herve/datasets/Kitti/data_scene_flow/training/image_2/000192_10.png
V/home/herve/datasets/Kitti/data_scene_flow/training/image_3/000192_10.png
tp95
(V/home/herve/datasets/Kitti/data_scene_flow/training/disp_occ_0/000192_10.png
V/home/herve/datasets/Kitti/data_scene_flow/training/disp_occ_1/000192_10.png
tp96
tp97
a((V/home/herve/datasets/Kitti/data_scene_flow/training/image_2/000072_10.png
V/home/herve/datasets/Kitti/data_scene_flow/training/image_3/000072_10.png
tp98
(V/home/herve/datasets/Kitti/data_scene_flow/training/disp_occ_0/000072_10.png
V/home/herve/datasets/Kitti/data_scene_flow/training/disp_occ_1/000072_10.png
tp99
tp100
a((V/home/herve/datasets/Kitti/data_scene_flow/training/image_2/000006_10.png
V/home/herve/datasets/Kitti/data_scene_flow/training/image_3/000006_10.png
tp101
(V/home/herve/datasets/Kitti/data_scene_flow/training/disp_occ_0/000006_10.png
V/home/herve/datasets/Kitti/data_scene_flow/training/disp_occ_1/000006_10.png
tp102
tp103
a((V/home/herve/datasets/Kitti/data_scene_flow/training/image_2/000177_10.png
V/home/herve/datasets/Kitti/data_scene_flow/training/image_3/000177_10.png
tp104
(V/home/herve/datasets/Kitti/data_scene_flow/training/disp_occ_0/000177_10.png
V/home/herve/datasets/Kitti/data_scene_flow/training/disp_occ_1/000177_10.png
tp105
tp106
a((V/home/herve/datasets/Kitti/data_scene_flow/training/image_2/000183_10.png
V/home/herve/datasets/Kitti/data_scene_flow/training/image_3/000183_10.png
tp107
(V/home/herve/datasets/Kitti/data_scene_flow/training/disp_occ_0/000183_10.png
V/home/herve/datasets/Kitti/data_scene_flow/training/disp_occ_1/000183_10.png
tp108
tp109
a((V/home/herve/datasets/Kitti/data_scene_flow/training/image_2/000160_10.png
V/home/herve/datasets/Kitti/data_scene_flow/training/image_3/000160_10.png
tp110
(V/home/herve/datasets/Kitti/data_scene_flow/training/disp_occ_0/000160_10.png
V/home/herve/datasets/Kitti/data_scene_flow/training/disp_occ_1/000160_10.png
tp111
tp112
a((V/home/herve/datasets/Kitti/data_scene_flow/training/image_2/000097_10.png
V/home/herve/datasets/Kitti/data_scene_flow/training/image_3/000097_10.png
tp113
(V/home/herve/datasets/Kitti/data_scene_flow/training/disp_occ_0/000097_10.png
V/home/herve/datasets/Kitti/data_scene_flow/training/disp_occ_1/000097_10.png
tp114
tp115
a((V/home/herve/datasets/Kitti/data_scene_flow/training/image_2/000071_10.png
V/home/herve/datasets/Kitti/data_scene_flow/training/image_3/000071_10.png
tp116
(V/home/herve/datasets/Kitti/data_scene_flow/training/disp_occ_0/000071_10.png
V/home/herve/datasets/Kitti/data_scene_flow/training/disp_occ_1/000071_10.png
tp117
tp118
a((V/home/herve/datasets/Kitti/data_scene_flow/training/image_2/000118_10.png
V/home/herve/datasets/Kitti/data_scene_flow/training/image_3/000118_10.png
tp119
(V/home/herve/datasets/Kitti/data_scene_flow/training/disp_occ_0/000118_10.png
V/home/herve/datasets/Kitti/data_scene_flow/training/disp_occ_1/000118_10.png
tp120
tp121
a((V/home/herve/datasets/Kitti/data_scene_flow/training/image_2/000029_10.png
V/home/herve/datasets/Kitti/data_scene_flow/training/image_3/000029_10.png
tp122
(V/home/herve/datasets/Kitti/data_scene_flow/training/disp_occ_0/000029_10.png
V/home/herve/datasets/Kitti/data_scene_flow/training/disp_occ_1/000029_10.png
tp123
tp124
a((V/home/herve/datasets/Kitti/data_scene_flow/training/image_2/000110_10.png
V/home/herve/datasets/Kitti/data_scene_flow/training/image_3/000110_10.png
tp125
(V/home/herve/datasets/Kitti/data_scene_flow/training/disp_occ_0/000110_10.png
V/home/herve/datasets/Kitti/data_scene_flow/training/disp_occ_1/000110_10.png
tp126
tp127
a((V/home/herve/datasets/Kitti/data_scene_flow/training/image_2/000154_10.png
V/home/herve/datasets/Kitti/data_scene_flow/training/image_3/000154_10.png
tp128
(V/home/herve/datasets/Kitti/data_scene_flow/training/disp_occ_0/000154_10.png
V/home/herve/datasets/Kitti/data_scene_flow/training/disp_occ_1/000154_10.png
tp129
tp130
a((V/home/herve/datasets/Kitti/data_scene_flow/training/image_2/000146_10.png
V/home/herve/datasets/Kitti/data_scene_flow/training/image_3/000146_10.png
tp131
(V/home/herve/datasets/Kitti/data_scene_flow/training/disp_occ_0/000146_10.png
V/home/herve/datasets/Kitti/data_scene_flow/training/disp_occ_1/000146_10.png
tp132
tp133
a((V/home/herve/datasets/Kitti/data_scene_flow/training/image_2/000050_10.png
V/home/herve/datasets/Kitti/data_scene_flow/training/image_3/000050_10.png
tp134
(V/home/herve/datasets/Kitti/data_scene_flow/training/disp_occ_0/000050_10.png
V/home/herve/datasets/Kitti/data_scene_flow/training/disp_occ_1/000050_10.png
tp135
tp136
a((V/home/herve/datasets/Kitti/data_scene_flow/training/image_2/000174_10.png
V/home/herve/datasets/Kitti/data_scene_flow/training/image_3/000174_10.png
tp137
(V/home/herve/datasets/Kitti/data_scene_flow/training/disp_occ_0/000174_10.png
V/home/herve/datasets/Kitti/data_scene_flow/training/disp_occ_1/000174_10.png
tp138
tp139
a((V/home/herve/datasets/Kitti/data_scene_flow/training/image_2/000101_10.png
V/home/herve/datasets/Kitti/data_scene_flow/training/image_3/000101_10.png
tp140
(V/home/herve/datasets/Kitti/data_scene_flow/training/disp_occ_0/000101_10.png
V/home/herve/datasets/Kitti/data_scene_flow/training/disp_occ_1/000101_10.png
tp141
tp142
a((V/home/herve/datasets/Kitti/data_scene_flow/training/image_2/000181_10.png
V/home/herve/datasets/Kitti/data_scene_flow/training/image_3/000181_10.png
tp143
(V/home/herve/datasets/Kitti/data_scene_flow/training/disp_occ_0/000181_10.png
V/home/herve/datasets/Kitti/data_scene_flow/training/disp_occ_1/000181_10.png
tp144
tp145
a((V/home/herve/datasets/Kitti/data_scene_flow/training/image_2/000060_10.png
V/home/herve/datasets/Kitti/data_scene_flow/training/image_3/000060_10.png
tp146
(V/home/herve/datasets/Kitti/data_scene_flow/training/disp_occ_0/000060_10.png
V/home/herve/datasets/Kitti/data_scene_flow/training/disp_occ_1/000060_10.png
tp147
tp148
a((V/home/herve/datasets/Kitti/data_scene_flow/training/image_2/000084_10.png
V/home/herve/datasets/Kitti/data_scene_flow/training/image_3/000084_10.png
tp149
(V/home/herve/datasets/Kitti/data_scene_flow/training/disp_occ_0/000084_10.png
V/home/herve/datasets/Kitti/data_scene_flow/training/disp_occ_1/000084_10.png
tp150
tp151
a((V/home/herve/datasets/Kitti/data_scene_flow/training/image_2/000131_10.png
V/home/herve/datasets/Kitti/data_scene_flow/training/image_3/000131_10.png
tp152
(V/home/herve/datasets/Kitti/data_scene_flow/training/disp_occ_0/000131_10.png
V/home/herve/datasets/Kitti/data_scene_flow/training/disp_occ_1/000131_10.png
tp153
tp154
a((V/home/herve/datasets/Kitti/data_scene_flow/training/image_2/000020_10.png
V/home/herve/datasets/Kitti/data_scene_flow/training/image_3/000020_10.png
tp155
(V/home/herve/datasets/Kitti/data_scene_flow/training/disp_occ_0/000020_10.png
V/home/herve/datasets/Kitti/data_scene_flow/training/disp_occ_1/000020_10.png
tp156
tp157
a((V/home/herve/datasets/Kitti/data_scene_flow/training/image_2/000067_10.png
V/home/herve/datasets/Kitti/data_scene_flow/training/image_3/000067_10.png
tp158
(V/home/herve/datasets/Kitti/data_scene_flow/training/disp_occ_0/000067_10.png
V/home/herve/datasets/Kitti/data_scene_flow/training/disp_occ_1/000067_10.png
tp159
tp160
a((V/home/herve/datasets/Kitti/data_scene_flow/training/image_2/000034_10.png
V/home/herve/datasets/Kitti/data_scene_flow/training/image_3/000034_10.png
tp161
(V/home/herve/datasets/Kitti/data_scene_flow/training/disp_occ_0/000034_10.png
V/home/herve/datasets/Kitti/data_scene_flow/training/disp_occ_1/000034_10.png
tp162
tp163
a((V/home/herve/datasets/Kitti/data_scene_flow/training/image_2/000059_10.png
V/home/herve/datasets/Kitti/data_scene_flow/training/image_3/000059_10.png
tp164
(V/home/herve/datasets/Kitti/data_scene_flow/training/disp_occ_0/000059_10.png
V/home/herve/datasets/Kitti/data_scene_flow/training/disp_occ_1/000059_10.png
tp165
tp166
a((V/home/herve/datasets/Kitti/data_scene_flow/training/image_2/000030_10.png
V/home/herve/datasets/Kitti/data_scene_flow/training/image_3/000030_10.png
tp167
(V/home/herve/datasets/Kitti/data_scene_flow/training/disp_occ_0/000030_10.png
V/home/herve/datasets/Kitti/data_scene_flow/training/disp_occ_1/000030_10.png
tp168
tp169
a((V/home/herve/datasets/Kitti/data_scene_flow/training/image_2/000043_10.png
V/home/herve/datasets/Kitti/data_scene_flow/training/image_3/000043_10.png
tp170
(V/home/herve/datasets/Kitti/data_scene_flow/training/disp_occ_0/000043_10.png
V/home/herve/datasets/Kitti/data_scene_flow/training/disp_occ_1/000043_10.png
tp171
tp172
a((V/home/herve/datasets/Kitti/data_scene_flow/training/image_2/000023_10.png
V/home/herve/datasets/Kitti/data_scene_flow/training/image_3/000023_10.png
tp173
(V/home/herve/datasets/Kitti/data_scene_flow/training/disp_occ_0/000023_10.png
V/home/herve/datasets/Kitti/data_scene_flow/training/disp_occ_1/000023_10.png
tp174
tp175
a((V/home/herve/datasets/Kitti/data_scene_flow/training/image_2/000024_10.png
V/home/herve/datasets/Kitti/data_scene_flow/training/image_3/000024_10.png
tp176
(V/home/herve/datasets/Kitti/data_scene_flow/training/disp_occ_0/000024_10.png
V/home/herve/datasets/Kitti/data_scene_flow/training/disp_occ_1/000024_10.png
tp177
tp178
a((V/home/herve/datasets/Kitti/data_scene_flow/training/image_2/000150_10.png
V/home/herve/datasets/Kitti/data_scene_flow/training/image_3/000150_10.png
tp179
(V/home/herve/datasets/Kitti/data_scene_flow/training/disp_occ_0/000150_10.png
V/home/herve/datasets/Kitti/data_scene_flow/training/disp_occ_1/000150_10.png
tp180
tp181
a((V/home/herve/datasets/Kitti/data_scene_flow/training/image_2/000049_10.png
V/home/herve/datasets/Kitti/data_scene_flow/training/image_3/000049_10.png
tp182
(V/home/herve/datasets/Kitti/data_scene_flow/training/disp_occ_0/000049_10.png
V/home/herve/datasets/Kitti/data_scene_flow/training/disp_occ_1/000049_10.png
tp183
tp184
a((V/home/herve/datasets/Kitti/data_scene_flow/training/image_2/000045_10.png
V/home/herve/datasets/Kitti/data_scene_flow/training/image_3/000045_10.png
tp185
(V/home/herve/datasets/Kitti/data_scene_flow/training/disp_occ_0/000045_10.png
V/home/herve/datasets/Kitti/data_scene_flow/training/disp_occ_1/000045_10.png
tp186
tp187
a((V/home/herve/datasets/Kitti/data_scene_flow/training/image_2/000165_10.png
V/home/herve/datasets/Kitti/data_scene_flow/training/image_3/000165_10.png
tp188
(V/home/herve/datasets/Kitti/data_scene_flow/training/disp_occ_0/000165_10.png
V/home/herve/datasets/Kitti/data_scene_flow/training/disp_occ_1/000165_10.png
tp189
tp190
a((V/home/herve/datasets/Kitti/data_scene_flow/training/image_2/000129_10.png
V/home/herve/datasets/Kitti/data_scene_flow/training/image_3/000129_10.png
tp191
(V/home/herve/datasets/Kitti/data_scene_flow/training/disp_occ_0/000129_10.png
V/home/herve/datasets/Kitti/data_scene_flow/training/disp_occ_1/000129_10.png
tp192
tp193
a((V/home/herve/datasets/Kitti/data_scene_flow/training/image_2/000013_10.png
V/home/herve/datasets/Kitti/data_scene_flow/training/image_3/000013_10.png
tp194
(V/home/herve/datasets/Kitti/data_scene_flow/training/disp_occ_0/000013_10.png
V/home/herve/datasets/Kitti/data_scene_flow/training/disp_occ_1/000013_10.png
tp195
tp196
a((V/home/herve/datasets/Kitti/data_scene_flow/training/image_2/000190_10.png
V/home/herve/datasets/Kitti/data_scene_flow/training/image_3/000190_10.png
tp197
(V/home/herve/datasets/Kitti/data_scene_flow/training/disp_occ_0/000190_10.png
V/home/herve/datasets/Kitti/data_scene_flow/training/disp_occ_1/000190_10.png
tp198
tp199
a((V/home/herve/datasets/Kitti/data_scene_flow/training/image_2/000187_10.png
V/home/herve/datasets/Kitti/data_scene_flow/training/image_3/000187_10.png
tp200
(V/home/herve/datasets/Kitti/data_scene_flow/training/disp_occ_0/000187_10.png
V/home/herve/datasets/Kitti/data_scene_flow/training/disp_occ_1/000187_10.png
tp201
tp202
a((V/home/herve/datasets/Kitti/data_scene_flow/training/image_2/000170_10.png
V/home/herve/datasets/Kitti/data_scene_flow/training/image_3/000170_10.png
tp203
(V/home/herve/datasets/Kitti/data_scene_flow/training/disp_occ_0/000170_10.png
V/home/herve/datasets/Kitti/data_scene_flow/training/disp_occ_1/000170_10.png
tp204
tp205
a((V/home/herve/datasets/Kitti/data_scene_flow/training/image_2/000032_10.png
V/home/herve/datasets/Kitti/data_scene_flow/training/image_3/000032_10.png
tp206
(V/home/herve/datasets/Kitti/data_scene_flow/training/disp_occ_0/000032_10.png
V/home/herve/datasets/Kitti/data_scene_flow/training/disp_occ_1/000032_10.png
tp207
tp208
a((V/home/herve/datasets/Kitti/data_scene_flow/training/image_2/000086_10.png
V/home/herve/datasets/Kitti/data_scene_flow/training/image_3/000086_10.png
tp209
(V/home/herve/datasets/Kitti/data_scene_flow/training/disp_occ_0/000086_10.png
V/home/herve/datasets/Kitti/data_scene_flow/training/disp_occ_1/000086_10.png
tp210
tp211
a((V/home/herve/datasets/Kitti/data_scene_flow/training/image_2/000009_10.png
V/home/herve/datasets/Kitti/data_scene_flow/training/image_3/000009_10.png
tp212
(V/home/herve/datasets/Kitti/data_scene_flow/training/disp_occ_0/000009_10.png
V/home/herve/datasets/Kitti/data_scene_flow/training/disp_occ_1/000009_10.png
tp213
tp214
a((V/home/herve/datasets/Kitti/data_scene_flow/training/image_2/000019_10.png
V/home/herve/datasets/Kitti/data_scene_flow/training/image_3/000019_10.png
tp215
(V/home/herve/datasets/Kitti/data_scene_flow/training/disp_occ_0/000019_10.png
V/home/herve/datasets/Kitti/data_scene_flow/training/disp_occ_1/000019_10.png
tp216
tp217
a((V/home/herve/datasets/Kitti/data_scene_flow/training/image_2/000126_10.png
V/home/herve/datasets/Kitti/data_scene_flow/training/image_3/000126_10.png
tp218
(V/home/herve/datasets/Kitti/data_scene_flow/training/disp_occ_0/000126_10.png
V/home/herve/datasets/Kitti/data_scene_flow/training/disp_occ_1/000126_10.png
tp219
tp220
a((V/home/herve/datasets/Kitti/data_scene_flow/training/image_2/000075_10.png
V/home/herve/datasets/Kitti/data_scene_flow/training/image_3/000075_10.png
tp221
(V/home/herve/datasets/Kitti/data_scene_flow/training/disp_occ_0/000075_10.png
V/home/herve/datasets/Kitti/data_scene_flow/training/disp_occ_1/000075_10.png
tp222
tp223
a((V/home/herve/datasets/Kitti/data_scene_flow/training/image_2/000106_10.png
V/home/herve/datasets/Kitti/data_scene_flow/training/image_3/000106_10.png
tp224
(V/home/herve/datasets/Kitti/data_scene_flow/training/disp_occ_0/000106_10.png
V/home/herve/datasets/Kitti/data_scene_flow/training/disp_occ_1/000106_10.png
tp225
tp226
a((V/home/herve/datasets/Kitti/data_scene_flow/training/image_2/000076_10.png
V/home/herve/datasets/Kitti/data_scene_flow/training/image_3/000076_10.png
tp227
(V/home/herve/datasets/Kitti/data_scene_flow/training/disp_occ_0/000076_10.png
V/home/herve/datasets/Kitti/data_scene_flow/training/disp_occ_1/000076_10.png
tp228
tp229
a((V/home/herve/datasets/Kitti/data_scene_flow/training/image_2/000148_10.png
V/home/herve/datasets/Kitti/data_scene_flow/training/image_3/000148_10.png
tp230
(V/home/herve/datasets/Kitti/data_scene_flow/training/disp_occ_0/000148_10.png
V/home/herve/datasets/Kitti/data_scene_flow/training/disp_occ_1/000148_10.png
tp231
tp232
a((V/home/herve/datasets/Kitti/data_scene_flow/training/image_2/000112_10.png
V/home/herve/datasets/Kitti/data_scene_flow/training/image_3/000112_10.png
tp233
(V/home/herve/datasets/Kitti/data_scene_flow/training/disp_occ_0/000112_10.png
V/home/herve/datasets/Kitti/data_scene_flow/training/disp_occ_1/000112_10.png
tp234
tp235
a((V/home/herve/datasets/Kitti/data_scene_flow/training/image_2/000111_10.png
V/home/herve/datasets/Kitti/data_scene_flow/training/image_3/000111_10.png
tp236
(V/home/herve/datasets/Kitti/data_scene_flow/training/disp_occ_0/000111_10.png
V/home/herve/datasets/Kitti/data_scene_flow/training/disp_occ_1/000111_10.png
tp237
tp238
a((V/home/herve/datasets/Kitti/data_scene_flow/training/image_2/000108_10.png
V/home/herve/datasets/Kitti/data_scene_flow/training/image_3/000108_10.png
tp239
(V/home/herve/datasets/Kitti/data_scene_flow/training/disp_occ_0/000108_10.png
V/home/herve/datasets/Kitti/data_scene_flow/training/disp_occ_1/000108_10.png
tp240
tp241
a((V/home/herve/datasets/Kitti/data_scene_flow/training/image_2/000042_10.png
V/home/herve/datasets/Kitti/data_scene_flow/training/image_3/000042_10.png
tp242
(V/home/herve/datasets/Kitti/data_scene_flow/training/disp_occ_0/000042_10.png
V/home/herve/datasets/Kitti/data_scene_flow/training/disp_occ_1/000042_10.png
tp243
tp244
a((V/home/herve/datasets/Kitti/data_scene_flow/training/image_2/000145_10.png
V/home/herve/datasets/Kitti/data_scene_flow/training/image_3/000145_10.png
tp245
(V/home/herve/datasets/Kitti/data_scene_flow/training/disp_occ_0/000145_10.png
V/home/herve/datasets/Kitti/data_scene_flow/training/disp_occ_1/000145_10.png
tp246
tp247
a((V/home/herve/datasets/Kitti/data_scene_flow/training/image_2/000054_10.png
V/home/herve/datasets/Kitti/data_scene_flow/training/image_3/000054_10.png
tp248
(V/home/herve/datasets/Kitti/data_scene_flow/training/disp_occ_0/000054_10.png
V/home/herve/datasets/Kitti/data_scene_flow/training/disp_occ_1/000054_10.png
tp249
tp250
a((V/home/herve/datasets/Kitti/data_scene_flow/training/image_2/000026_10.png
V/home/herve/datasets/Kitti/data_scene_flow/training/image_3/000026_10.png
tp251
(V/home/herve/datasets/Kitti/data_scene_flow/training/disp_occ_0/000026_10.png
V/home/herve/datasets/Kitti/data_scene_flow/training/disp_occ_1/000026_10.png
tp252
tp253
a((V/home/herve/datasets/Kitti/data_scene_flow/training/image_2/000093_10.png
V/home/herve/datasets/Kitti/data_scene_flow/training/image_3/000093_10.png
tp254
(V/home/herve/datasets/Kitti/data_scene_flow/training/disp_occ_0/000093_10.png
V/home/herve/datasets/Kitti/data_scene_flow/training/disp_occ_1/000093_10.png
tp255
tp256
a((V/home/herve/datasets/Kitti/data_scene_flow/training/image_2/000078_10.png
V/home/herve/datasets/Kitti/data_scene_flow/training/image_3/000078_10.png
tp257
(V/home/herve/datasets/Kitti/data_scene_flow/training/disp_occ_0/000078_10.png
V/home/herve/datasets/Kitti/data_scene_flow/training/disp_occ_1/000078_10.png
tp258
tp259
a((V/home/herve/datasets/Kitti/data_scene_flow/training/image_2/000102_10.png
V/home/herve/datasets/Kitti/data_scene_flow/training/image_3/000102_10.png
tp260
(V/home/herve/datasets/Kitti/data_scene_flow/training/disp_occ_0/000102_10.png
V/home/herve/datasets/Kitti/data_scene_flow/training/disp_occ_1/000102_10.png
tp261
tp262
a((V/home/herve/datasets/Kitti/data_scene_flow/training/image_2/000113_10.png
V/home/herve/datasets/Kitti/data_scene_flow/training/image_3/000113_10.png
tp263
(V/home/herve/datasets/Kitti/data_scene_flow/training/disp_occ_0/000113_10.png
V/home/herve/datasets/Kitti/data_scene_flow/training/disp_occ_1/000113_10.png
tp264
tp265
a((V/home/herve/datasets/Kitti/data_scene_flow/training/image_2/000083_10.png
V/home/herve/datasets/Kitti/data_scene_flow/training/image_3/000083_10.png
tp266
(V/home/herve/datasets/Kitti/data_scene_flow/training/disp_occ_0/000083_10.png
V/home/herve/datasets/Kitti/data_scene_flow/training/disp_occ_1/000083_10.png
tp267
tp268
a((V/home/herve/datasets/Kitti/data_scene_flow/training/image_2/000082_10.png
V/home/herve/datasets/Kitti/data_scene_flow/training/image_3/000082_10.png
tp269
(V/home/herve/datasets/Kitti/data_scene_flow/training/disp_occ_0/000082_10.png
V/home/herve/datasets/Kitti/data_scene_flow/training/disp_occ_1/000082_10.png
tp270
tp271
a((V/home/herve/datasets/Kitti/data_scene_flow/training/image_2/000156_10.png
V/home/herve/datasets/Kitti/data_scene_flow/training/image_3/000156_10.png
tp272
(V/home/herve/datasets/Kitti/data_scene_flow/training/disp_occ_0/000156_10.png
V/home/herve/datasets/Kitti/data_scene_flow/training/disp_occ_1/000156_10.png
tp273
tp274
a((V/home/herve/datasets/Kitti/data_scene_flow/training/image_2/000018_10.png
V/home/herve/datasets/Kitti/data_scene_flow/training/image_3/000018_10.png
tp275
(V/home/herve/datasets/Kitti/data_scene_flow/training/disp_occ_0/000018_10.png
V/home/herve/datasets/Kitti/data_scene_flow/training/disp_occ_1/000018_10.png
tp276
tp277
a((V/home/herve/datasets/Kitti/data_scene_flow/training/image_2/000068_10.png
V/home/herve/datasets/Kitti/data_scene_flow/training/image_3/000068_10.png
tp278
(V/home/herve/datasets/Kitti/data_scene_flow/training/disp_occ_0/000068_10.png
V/home/herve/datasets/Kitti/data_scene_flow/training/disp_occ_1/000068_10.png
tp279
tp280
a((V/home/herve/datasets/Kitti/data_scene_flow/training/image_2/000027_10.png
V/home/herve/datasets/Kitti/data_scene_flow/training/image_3/000027_10.png
tp281
(V/home/herve/datasets/Kitti/data_scene_flow/training/disp_occ_0/000027_10.png
V/home/herve/datasets/Kitti/data_scene_flow/training/disp_occ_1/000027_10.png
tp282
tp283
a((V/home/herve/datasets/Kitti/data_scene_flow/training/image_2/000044_10.png
V/home/herve/datasets/Kitti/data_scene_flow/training/image_3/000044_10.png
tp284
(V/home/herve/datasets/Kitti/data_scene_flow/training/disp_occ_0/000044_10.png
V/home/herve/datasets/Kitti/data_scene_flow/training/disp_occ_1/000044_10.png
tp285
tp286
a((V/home/herve/datasets/Kitti/data_scene_flow/training/image_2/000159_10.png
V/home/herve/datasets/Kitti/data_scene_flow/training/image_3/000159_10.png
tp287
(V/home/herve/datasets/Kitti/data_scene_flow/training/disp_occ_0/000159_10.png
V/home/herve/datasets/Kitti/data_scene_flow/training/disp_occ_1/000159_10.png
tp288
tp289
a((V/home/herve/datasets/Kitti/data_scene_flow/training/image_2/000077_10.png
V/home/herve/datasets/Kitti/data_scene_flow/training/image_3/000077_10.png
tp290
(V/home/herve/datasets/Kitti/data_scene_flow/training/disp_occ_0/000077_10.png
V/home/herve/datasets/Kitti/data_scene_flow/training/disp_occ_1/000077_10.png
tp291
tp292
a((V/home/herve/datasets/Kitti/data_scene_flow/training/image_2/000036_10.png
V/home/herve/datasets/Kitti/data_scene_flow/training/image_3/000036_10.png
tp293
(V/home/herve/datasets/Kitti/data_scene_flow/training/disp_occ_0/000036_10.png
V/home/herve/datasets/Kitti/data_scene_flow/training/disp_occ_1/000036_10.png
tp294
tp295
a((V/home/herve/datasets/Kitti/data_scene_flow/training/image_2/000185_10.png
V/home/herve/datasets/Kitti/data_scene_flow/training/image_3/000185_10.png
tp296
(V/home/herve/datasets/Kitti/data_scene_flow/training/disp_occ_0/000185_10.png
V/home/herve/datasets/Kitti/data_scene_flow/training/disp_occ_1/000185_10.png
tp297
tp298
a((V/home/herve/datasets/Kitti/data_scene_flow/training/image_2/000175_10.png
V/home/herve/datasets/Kitti/data_scene_flow/training/image_3/000175_10.png
tp299
(V/home/herve/datasets/Kitti/data_scene_flow/training/disp_occ_0/000175_10.png
V/home/herve/datasets/Kitti/data_scene_flow/training/disp_occ_1/000175_10.png
tp300
tp301
a((V/home/herve/datasets/Kitti/data_scene_flow/training/image_2/000149_10.png
V/home/herve/datasets/Kitti/data_scene_flow/training/image_3/000149_10.png
tp302
(V/home/herve/datasets/Kitti/data_scene_flow/training/disp_occ_0/000149_10.png
V/home/herve/datasets/Kitti/data_scene_flow/training/disp_occ_1/000149_10.png
tp303
tp304
a((V/home/herve/datasets/Kitti/data_scene_flow/training/image_2/000021_10.png
V/home/herve/datasets/Kitti/data_scene_flow/training/image_3/000021_10.png
tp305
(V/home/herve/datasets/Kitti/data_scene_flow/training/disp_occ_0/000021_10.png
V/home/herve/datasets/Kitti/data_scene_flow/training/disp_occ_1/000021_10.png
tp306
tp307
a((V/home/herve/datasets/Kitti/data_scene_flow/training/image_2/000096_10.png
V/home/herve/datasets/Kitti/data_scene_flow/training/image_3/000096_10.png
tp308
(V/home/herve/datasets/Kitti/data_scene_flow/training/disp_occ_0/000096_10.png
V/home/herve/datasets/Kitti/data_scene_flow/training/disp_occ_1/000096_10.png
tp309
tp310
a((V/home/herve/datasets/Kitti/data_scene_flow/training/image_2/000121_10.png
V/home/herve/datasets/Kitti/data_scene_flow/training/image_3/000121_10.png
tp311
(V/home/herve/datasets/Kitti/data_scene_flow/training/disp_occ_0/000121_10.png
V/home/herve/datasets/Kitti/data_scene_flow/training/disp_occ_1/000121_10.png
tp312
tp313
a((V/home/herve/datasets/Kitti/data_scene_flow/training/image_2/000180_10.png
V/home/herve/datasets/Kitti/data_scene_flow/training/image_3/000180_10.png
tp314
(V/home/herve/datasets/Kitti/data_scene_flow/training/disp_occ_0/000180_10.png
V/home/herve/datasets/Kitti/data_scene_flow/training/disp_occ_1/000180_10.png
tp315
tp316
a((V/home/herve/datasets/Kitti/data_scene_flow/training/image_2/000017_10.png
V/home/herve/datasets/Kitti/data_scene_flow/training/image_3/000017_10.png
tp317
(V/home/herve/datasets/Kitti/data_scene_flow/training/disp_occ_0/000017_10.png
V/home/herve/datasets/Kitti/data_scene_flow/training/disp_occ_1/000017_10.png
tp318
tp319
a((V/home/herve/datasets/Kitti/data_scene_flow/training/image_2/000074_10.png
V/home/herve/datasets/Kitti/data_scene_flow/training/image_3/000074_10.png
tp320
(V/home/herve/datasets/Kitti/data_scene_flow/training/disp_occ_0/000074_10.png
V/home/herve/datasets/Kitti/data_scene_flow/training/disp_occ_1/000074_10.png
tp321
tp322
a((V/home/herve/datasets/Kitti/data_scene_flow/training/image_2/000033_10.png
V/home/herve/datasets/Kitti/data_scene_flow/training/image_3/000033_10.png
tp323
(V/home/herve/datasets/Kitti/data_scene_flow/training/disp_occ_0/000033_10.png
V/home/herve/datasets/Kitti/data_scene_flow/training/disp_occ_1/000033_10.png
tp324
tp325
a((V/home/herve/datasets/Kitti/data_scene_flow/training/image_2/000122_10.png
V/home/herve/datasets/Kitti/data_scene_flow/training/image_3/000122_10.png
tp326
(V/home/herve/datasets/Kitti/data_scene_flow/training/disp_occ_0/000122_10.png
V/home/herve/datasets/Kitti/data_scene_flow/training/disp_occ_1/000122_10.png
tp327
tp328
a((V/home/herve/datasets/Kitti/data_scene_flow/training/image_2/000132_10.png
V/home/herve/datasets/Kitti/data_scene_flow/training/image_3/000132_10.png
tp329
(V/home/herve/datasets/Kitti/data_scene_flow/training/disp_occ_0/000132_10.png
V/home/herve/datasets/Kitti/data_scene_flow/training/disp_occ_1/000132_10.png
tp330
tp331
a((V/home/herve/datasets/Kitti/data_scene_flow/training/image_2/000139_10.png
V/home/herve/datasets/Kitti/data_scene_flow/training/image_3/000139_10.png
tp332
(V/home/herve/datasets/Kitti/data_scene_flow/training/disp_occ_0/000139_10.png
V/home/herve/datasets/Kitti/data_scene_flow/training/disp_occ_1/000139_10.png
tp333
tp334
a((V/home/herve/datasets/Kitti/data_scene_flow/training/image_2/000100_10.png
V/home/herve/datasets/Kitti/data_scene_flow/training/image_3/000100_10.png
tp335
(V/home/herve/datasets/Kitti/data_scene_flow/training/disp_occ_0/000100_10.png
V/home/herve/datasets/Kitti/data_scene_flow/training/disp_occ_1/000100_10.png
tp336
tp337
a((V/home/herve/datasets/Kitti/data_scene_flow/training/image_2/000137_10.png
V/home/herve/datasets/Kitti/data_scene_flow/training/image_3/000137_10.png
tp338
(V/home/herve/datasets/Kitti/data_scene_flow/training/disp_occ_0/000137_10.png
V/home/herve/datasets/Kitti/data_scene_flow/training/disp_occ_1/000137_10.png
tp339
tp340
a((V/home/herve/datasets/Kitti/data_scene_flow/training/image_2/000152_10.png
V/home/herve/datasets/Kitti/data_scene_flow/training/image_3/000152_10.png
tp341
(V/home/herve/datasets/Kitti/data_scene_flow/training/disp_occ_0/000152_10.png
V/home/herve/datasets/Kitti/data_scene_flow/training/disp_occ_1/000152_10.png
tp342
tp343
a((V/home/herve/datasets/Kitti/data_scene_flow/training/image_2/000063_10.png
V/home/herve/datasets/Kitti/data_scene_flow/training/image_3/000063_10.png
tp344
(V/home/herve/datasets/Kitti/data_scene_flow/training/disp_occ_0/000063_10.png
V/home/herve/datasets/Kitti/data_scene_flow/training/disp_occ_1/000063_10.png
tp345
tp346
a((V/home/herve/datasets/Kitti/data_scene_flow/training/image_2/000140_10.png
V/home/herve/datasets/Kitti/data_scene_flow/training/image_3/000140_10.png
tp347
(V/home/herve/datasets/Kitti/data_scene_flow/training/disp_occ_0/000140_10.png
V/home/herve/datasets/Kitti/data_scene_flow/training/disp_occ_1/000140_10.png
tp348
tp349
a((V/home/herve/datasets/Kitti/data_scene_flow/training/image_2/000144_10.png
V/home/herve/datasets/Kitti/data_scene_flow/training/image_3/000144_10.png
tp350
(V/home/herve/datasets/Kitti/data_scene_flow/training/disp_occ_0/000144_10.png
V/home/herve/datasets/Kitti/data_scene_flow/training/disp_occ_1/000144_10.png
tp351
tp352
a((V/home/herve/datasets/Kitti/data_scene_flow/training/image_2/000157_10.png
V/home/herve/datasets/Kitti/data_scene_flow/training/image_3/000157_10.png
tp353
(V/home/herve/datasets/Kitti/data_scene_flow/training/disp_occ_0/000157_10.png
V/home/herve/datasets/Kitti/data_scene_flow/training/disp_occ_1/000157_10.png
tp354
tp355
a((V/home/herve/datasets/Kitti/data_scene_flow/training/image_2/000167_10.png
V/home/herve/datasets/Kitti/data_scene_flow/training/image_3/000167_10.png
tp356
(V/home/herve/datasets/Kitti/data_scene_flow/training/disp_occ_0/000167_10.png
V/home/herve/datasets/Kitti/data_scene_flow/training/disp_occ_1/000167_10.png
tp357
tp358
a((V/home/herve/datasets/Kitti/data_scene_flow/training/image_2/000124_10.png
V/home/herve/datasets/Kitti/data_scene_flow/training/image_3/000124_10.png
tp359
(V/home/herve/datasets/Kitti/data_scene_flow/training/disp_occ_0/000124_10.png
V/home/herve/datasets/Kitti/data_scene_flow/training/disp_occ_1/000124_10.png
tp360
tp361
a((V/home/herve/datasets/Kitti/data_scene_flow/training/image_2/000001_10.png
V/home/herve/datasets/Kitti/data_scene_flow/training/image_3/000001_10.png
tp362
(V/home/herve/datasets/Kitti/data_scene_flow/training/disp_occ_0/000001_10.png
V/home/herve/datasets/Kitti/data_scene_flow/training/disp_occ_1/000001_10.png
tp363
tp364
a((V/home/herve/datasets/Kitti/data_scene_flow/training/image_2/000080_10.png
V/home/herve/datasets/Kitti/data_scene_flow/training/image_3/000080_10.png
tp365
(V/home/herve/datasets/Kitti/data_scene_flow/training/disp_occ_0/000080_10.png
V/home/herve/datasets/Kitti/data_scene_flow/training/disp_occ_1/000080_10.png
tp366
tp367
a((V/home/herve/datasets/Kitti/data_scene_flow/training/image_2/000008_10.png
V/home/herve/datasets/Kitti/data_scene_flow/training/image_3/000008_10.png
tp368
(V/home/herve/datasets/Kitti/data_scene_flow/training/disp_occ_0/000008_10.png
V/home/herve/datasets/Kitti/data_scene_flow/training/disp_occ_1/000008_10.png
tp369
tp370
a((V/home/herve/datasets/Kitti/data_scene_flow/training/image_2/000007_10.png
V/home/herve/datasets/Kitti/data_scene_flow/training/image_3/000007_10.png
tp371
(V/home/herve/datasets/Kitti/data_scene_flow/training/disp_occ_0/000007_10.png
V/home/herve/datasets/Kitti/data_scene_flow/training/disp_occ_1/000007_10.png
tp372
tp373
a((V/home/herve/datasets/Kitti/data_scene_flow/training/image_2/000163_10.png
V/home/herve/datasets/Kitti/data_scene_flow/training/image_3/000163_10.png
tp374
(V/home/herve/datasets/Kitti/data_scene_flow/training/disp_occ_0/000163_10.png
V/home/herve/datasets/Kitti/data_scene_flow/training/disp_occ_1/000163_10.png
tp375
tp376
a((V/home/herve/datasets/Kitti/data_scene_flow/training/image_2/000079_10.png
V/home/herve/datasets/Kitti/data_scene_flow/training/image_3/000079_10.png
tp377
(V/home/herve/datasets/Kitti/data_scene_flow/training/disp_occ_0/000079_10.png
V/home/herve/datasets/Kitti/data_scene_flow/training/disp_occ_1/000079_10.png
tp378
tp379
a((V/home/herve/datasets/Kitti/data_scene_flow/training/image_2/000184_10.png
V/home/herve/datasets/Kitti/data_scene_flow/training/image_3/000184_10.png
tp380
(V/home/herve/datasets/Kitti/data_scene_flow/training/disp_occ_0/000184_10.png
V/home/herve/datasets/Kitti/data_scene_flow/training/disp_occ_1/000184_10.png
tp381
tp382
a((V/home/herve/datasets/Kitti/data_scene_flow/training/image_2/000014_10.png
V/home/herve/datasets/Kitti/data_scene_flow/training/image_3/000014_10.png
tp383
(V/home/herve/datasets/Kitti/data_scene_flow/training/disp_occ_0/000014_10.png
V/home/herve/datasets/Kitti/data_scene_flow/training/disp_occ_1/000014_10.png
tp384
tp385
a((V/home/herve/datasets/Kitti/data_scene_flow/training/image_2/000099_10.png
V/home/herve/datasets/Kitti/data_scene_flow/training/image_3/000099_10.png
tp386
(V/home/herve/datasets/Kitti/data_scene_flow/training/disp_occ_0/000099_10.png
V/home/herve/datasets/Kitti/data_scene_flow/training/disp_occ_1/000099_10.png
tp387
tp388
a((V/home/herve/datasets/Kitti/data_scene_flow/training/image_2/000056_10.png
V/home/herve/datasets/Kitti/data_scene_flow/training/image_3/000056_10.png
tp389
(V/home/herve/datasets/Kitti/data_scene_flow/training/disp_occ_0/000056_10.png
V/home/herve/datasets/Kitti/data_scene_flow/training/disp_occ_1/000056_10.png
tp390
tp391
a((V/home/herve/datasets/Kitti/data_scene_flow/training/image_2/000062_10.png
V/home/herve/datasets/Kitti/data_scene_flow/training/image_3/000062_10.png
tp392
(V/home/herve/datasets/Kitti/data_scene_flow/training/disp_occ_0/000062_10.png
V/home/herve/datasets/Kitti/data_scene_flow/training/disp_occ_1/000062_10.png
tp393
tp394
a((V/home/herve/datasets/Kitti/data_scene_flow/training/image_2/000116_10.png
V/home/herve/datasets/Kitti/data_scene_flow/training/image_3/000116_10.png
tp395
(V/home/herve/datasets/Kitti/data_scene_flow/training/disp_occ_0/000116_10.png
V/home/herve/datasets/Kitti/data_scene_flow/training/disp_occ_1/000116_10.png
tp396
tp397
a((V/home/herve/datasets/Kitti/data_scene_flow/training/image_2/000025_10.png
V/home/herve/datasets/Kitti/data_scene_flow/training/image_3/000025_10.png
tp398
(V/home/herve/datasets/Kitti/data_scene_flow/training/disp_occ_0/000025_10.png
V/home/herve/datasets/Kitti/data_scene_flow/training/disp_occ_1/000025_10.png
tp399
tp400
a((V/home/herve/datasets/Kitti/data_scene_flow/training/image_2/000128_10.png
V/home/herve/datasets/Kitti/data_scene_flow/training/image_3/000128_10.png
tp401
(V/home/herve/datasets/Kitti/data_scene_flow/training/disp_occ_0/000128_10.png
V/home/herve/datasets/Kitti/data_scene_flow/training/disp_occ_1/000128_10.png
tp402
tp403
a((V/home/herve/datasets/Kitti/data_scene_flow/training/image_2/000147_10.png
V/home/herve/datasets/Kitti/data_scene_flow/training/image_3/000147_10.png
tp404
(V/home/herve/datasets/Kitti/data_scene_flow/training/disp_occ_0/000147_10.png
V/home/herve/datasets/Kitti/data_scene_flow/training/disp_occ_1/000147_10.png
tp405
tp406
a((V/home/herve/datasets/Kitti/data_scene_flow/training/image_2/000035_10.png
V/home/herve/datasets/Kitti/data_scene_flow/training/image_3/000035_10.png
tp407
(V/home/herve/datasets/Kitti/data_scene_flow/training/disp_occ_0/000035_10.png
V/home/herve/datasets/Kitti/data_scene_flow/training/disp_occ_1/000035_10.png
tp408
tp409
a((V/home/herve/datasets/Kitti/data_scene_flow/training/image_2/000196_10.png
V/home/herve/datasets/Kitti/data_scene_flow/training/image_3/000196_10.png
tp410
(V/home/herve/datasets/Kitti/data_scene_flow/training/disp_occ_0/000196_10.png
V/home/herve/datasets/Kitti/data_scene_flow/training/disp_occ_1/000196_10.png
tp411
tp412
a((V/home/herve/datasets/Kitti/data_scene_flow/training/image_2/000176_10.png
V/home/herve/datasets/Kitti/data_scene_flow/training/image_3/000176_10.png
tp413
(V/home/herve/datasets/Kitti/data_scene_flow/training/disp_occ_0/000176_10.png
V/home/herve/datasets/Kitti/data_scene_flow/training/disp_occ_1/000176_10.png
tp414
tp415
a((V/home/herve/datasets/Kitti/data_scene_flow/training/image_2/000094_10.png
V/home/herve/datasets/Kitti/data_scene_flow/training/image_3/000094_10.png
tp416
(V/home/herve/datasets/Kitti/data_scene_flow/training/disp_occ_0/000094_10.png
V/home/herve/datasets/Kitti/data_scene_flow/training/disp_occ_1/000094_10.png
tp417
tp418
a((V/home/herve/datasets/Kitti/data_scene_flow/training/image_2/000189_10.png
V/home/herve/datasets/Kitti/data_scene_flow/training/image_3/000189_10.png
tp419
(V/home/herve/datasets/Kitti/data_scene_flow/training/disp_occ_0/000189_10.png
V/home/herve/datasets/Kitti/data_scene_flow/training/disp_occ_1/000189_10.png
tp420
tp421
a.